; Function Attrs: mustprogress uwtable
define hidden void @_ZN4cvc58internal6theory11quantifiers15CegInstantiator17pushStackVariableENS0_12NodeTemplateILb1EEE(ptr noundef nonnull align 8 dereferenceable(1000) %0, ptr noundef %1) local_unnamed_addr #3 align 2 {
  %3 = getelementptr inbounds nuw i8, ptr %0, i64 928
  %4 = load ptr, ptr %3, align 8, !tbaa !64
  %5 = getelementptr inbounds nuw i8, ptr %0, i64 936
  %6 = load ptr, ptr %5, align 8, !tbaa !67
  %.not.i = icmp eq ptr %4, %6
  br i1 %.not.i, label %25, label %7

7:                                                ; preds = %2
  %8 = load ptr, ptr %1, align 8, !tbaa !6
  store ptr %8, ptr %4, align 8, !tbaa !6
  %9 = load i64, ptr %8, align 8
  %10 = lshr i64 %9, 40
  %11 = trunc nuw nsw i64 %10 to i32
  %12 = and i32 %11, 1048575
  %13 = icmp samesign ult i32 %12, 1048574
  br i1 %13, label %14, label %19, !prof !11

14:                                               ; preds = %7
  %15 = add i64 %9, 1099511627776
  %16 = and i64 %15, 1152920405095219200
  %17 = and i64 %9, -1152920405095219201
  %18 = or disjoint i64 %16, %17
  store i64 %18, ptr %8, align 8
  br label %_ZNSt16allocator_traitsISaIN4cvc58internal12NodeTemplateILb1EEEEE9constructIS3_JRKS3_EEEvRS4_PT_DpOT0_.exit.i

19:                                               ; preds = %7
  %20 = icmp eq i32 %12, 1048574
  br i1 %20, label %21, label %_ZNSt16allocator_traitsISaIN4cvc58internal12NodeTemplateILb1EEEEE9constructIS3_JRKS3_EEEvRS4_PT_DpOT0_.exit.i, !prof !12

21:                                               ; preds = %19
  %22 = or i64 %9, 1152920405095219200
  store i64 %22, ptr %8, align 8
  tail call void @_ZN4cvc58internal4expr9NodeValue20markRefCountMaxedOutEv(ptr noundef nonnull align 8 dereferenceable(24) %8)
  br label %_ZNSt16allocator_traitsISaIN4cvc58internal12NodeTemplateILb1EEEEE9constructIS3_JRKS3_EEEvRS4_PT_DpOT0_.exit.i

_ZNSt16allocator_traitsISaIN4cvc58internal12NodeTemplateILb1EEEEE9constructIS3_JRKS3_EEEvRS4_PT_DpOT0_.exit.i: ; preds = %21, %19, %14
  %23 = load ptr, ptr %3, align 8, !tbaa !64
  %24 = getelementptr inbounds nuw i8, ptr %23, i64 8
  store ptr %24, ptr %3, align 8, !tbaa !64
  br label %_ZNSt6vectorIN4cvc58internal12NodeTemplateILb1EEESaIS3_EE9push_backERKS3_.exit

25:                                               ; preds = %2
  %26 = getelementptr inbounds nuw i8, ptr %0, i64 920
  tail call void @_ZNSt6vectorIN4cvc58internal12NodeTemplateILb1EEESaIS3_EE17_M_realloc_insertIJRKS3_EEEvN9__gnu_cxx17__normal_iteratorIPS3_S5_EEDpOT_(ptr noundef nonnull align 8 dereferenceable(24) %26, ptr %4, ptr noundef nonnull align 8 dereferenceable(8) %1)
  br label %_ZNSt6vectorIN4cvc58internal12NodeTemplateILb1EEESaIS3_EE9push_backERKS3_.exit

_ZNSt6vectorIN4cvc58internal12NodeTemplateILb1EEESaIS3_EE9push_backERKS3_.exit: ; preds = %_ZNSt16allocator_traitsISaIN4cvc58internal12NodeTemplateILb1EEEEE9constructIS3_JRKS3_EEEvRS4_PT_DpOT0_.exit.i, %25
  ret void
}